target datalayout = "e-m:e-p270:32:32-p271:32:32-p272:64:64-i64:64-i128:128-f80:128-n8:16:32:64-S128"
target triple = "x86_64-pc-linux-gnu"

%struct.quic_conn_id_st = type { i8, [20 x i8] }

; Function Attrs: nounwind uwtable
define ptr @ossl_quic_wire_encode_transport_param_bytes(ptr noundef %0, i64 noundef %1, ptr noundef %2, i64 noundef %3) #0 {
  %5 = alloca ptr, align 8
  %6 = alloca ptr, align 8
  %7 = alloca i64, align 8
  %8 = alloca ptr, align 8
  %9 = alloca i64, align 8
  %10 = alloca ptr, align 8
  %11 = alloca i32, align 4
  store ptr %0, ptr %6, align 8, !tbaa !21
  store i64 %1, ptr %7, align 8, !tbaa !8
  store ptr %2, ptr %8, align 8, !tbaa !47
  store i64 %3, ptr %9, align 8, !tbaa !8
  call void @llvm.lifetime.start.p0(i64 8, ptr %10) #7
  store ptr null, ptr %10, align 8, !tbaa !47
  %12 = load ptr, ptr %6, align 8, !tbaa !21
  %13 = load i64, ptr %7, align 8, !tbaa !8
  %14 = call i32 @WPACKET_quic_write_vlint(ptr noundef %12, i64 noundef %13)
  %15 = icmp ne i32 %14, 0
  br i1 %15, label %16, label %21

16:                                               ; preds = %4
  %17 = load ptr, ptr %6, align 8, !tbaa !21
  %18 = load i64, ptr %9, align 8, !tbaa !8
  %19 = call i32 @WPACKET_quic_write_vlint(ptr noundef %17, i64 noundef %18)
  %20 = icmp ne i32 %19, 0
  br i1 %20, label %22, label %21

21:                                               ; preds = %16, %4
  store ptr null, ptr %5, align 8
  store i32 1, ptr %11, align 4
  br label %44

22:                                               ; preds = %16
  %23 = load i64, ptr %9, align 8, !tbaa !8
  %24 = icmp eq i64 %23, 0
  br i1 %24, label %25, label %28

25:                                               ; preds = %22
  %26 = load ptr, ptr %6, align 8, !tbaa !21
  %27 = call ptr @WPACKET_get_curr(ptr noundef %26)
  store ptr %27, ptr %10, align 8, !tbaa !47
  br label %35

28:                                               ; preds = %22
  %29 = load ptr, ptr %6, align 8, !tbaa !21
  %30 = load i64, ptr %9, align 8, !tbaa !8
  %31 = call i32 @WPACKET_allocate_bytes(ptr noundef %29, i64 noundef %30, ptr noundef %10)
  %32 = icmp ne i32 %31, 0
  br i1 %32, label %34, label %33

33:                                               ; preds = %28
  store ptr null, ptr %5, align 8
  store i32 1, ptr %11, align 4
  br label %44

34:                                               ; preds = %28
  br label %35

35:                                               ; preds = %34, %25
  %36 = load ptr, ptr %8, align 8, !tbaa !47
  %37 = icmp ne ptr %36, null
  br i1 %37, label %38, label %42

38:                                               ; preds = %35
  %39 = load ptr, ptr %10, align 8, !tbaa !47
  %40 = load ptr, ptr %8, align 8, !tbaa !47
  %41 = load i64, ptr %9, align 8, !tbaa !8
  call void @llvm.memcpy.p0.p0.i64(ptr align 1 %39, ptr align 1 %40, i64 %41, i1 false)
  br label %42

42:                                               ; preds = %38, %35
  %43 = load ptr, ptr %10, align 8, !tbaa !47
  store ptr %43, ptr %5, align 8
  store i32 1, ptr %11, align 4
  br label %44

44:                                               ; preds = %42, %33, %21
  call void @llvm.lifetime.end.p0(i64 8, ptr %10) #7
  %45 = load ptr, ptr %5, align 8
  ret ptr %45
}

; Function Attrs: nounwind uwtable
define i32 @ossl_quic_wire_encode_transport_param_cid(ptr noundef %0, i64 noundef %1, ptr noundef %2) #0 {
  %4 = alloca i32, align 4
  %5 = alloca ptr, align 8
  %6 = alloca i64, align 8
  %7 = alloca ptr, align 8
  store ptr %0, ptr %5, align 8, !tbaa !21
  store i64 %1, ptr %6, align 8, !tbaa !8
  store ptr %2, ptr %7, align 8, !tbaa !72
  %8 = load ptr, ptr %7, align 8, !tbaa !72
  %9 = getelementptr inbounds nuw %struct.quic_conn_id_st, ptr %8, i32 0, i32 0
  %10 = load i8, ptr %9, align 1, !tbaa !74
  %11 = zext i8 %10 to i32
  %12 = icmp sgt i32 %11, 20
  br i1 %12, label %13, label %14

13:                                               ; preds = %3
  store i32 0, ptr %4, align 4
  br label %28

14:                                               ; preds = %3
  %15 = load ptr, ptr %5, align 8, !tbaa !21
  %16 = load i64, ptr %6, align 8, !tbaa !8
  %17 = load ptr, ptr %7, align 8, !tbaa !72
  %18 = getelementptr inbounds nuw %struct.quic_conn_id_st, ptr %17, i32 0, i32 1
  %19 = getelementptr inbounds [20 x i8], ptr %18, i64 0, i64 0
  %20 = load ptr, ptr %7, align 8, !tbaa !72
  %21 = getelementptr inbounds nuw %struct.quic_conn_id_st, ptr %20, i32 0, i32 0
  %22 = load i8, ptr %21, align 1, !tbaa !74
  %23 = zext i8 %22 to i64
  %24 = call ptr @ossl_quic_wire_encode_transport_param_bytes(ptr noundef %15, i64 noundef %16, ptr noundef %19, i64 noundef %23)
  %25 = icmp eq ptr %24, null
  br i1 %25, label %26, label %27

26:                                               ; preds = %14
  store i32 0, ptr %4, align 4
  br label %28

27:                                               ; preds = %14
  store i32 1, ptr %4, align 4
  br label %28

28:                                               ; preds = %27, %26, %13
  %29 = load i32, ptr %4, align 4
  ret i32 %29
}