; Function Attrs: nounwind uwtable
define range(i32 0, 2) i32 @ossl_quic_wire_encode_transport_param_cid(ptr noundef %0, i64 noundef %1, ptr noundef readonly captures(none) %2) local_unnamed_addr #2 {
  %4 = alloca ptr, align 8
  %5 = load i8, ptr %2, align 1, !tbaa !51
  %6 = icmp ugt i8 %5, 20
  br i1 %6, label %22, label %7

7:                                                ; preds = %3
  %8 = getelementptr inbounds nuw i8, ptr %2, i64 1
  %9 = zext nneg i8 %5 to i64
  call void @llvm.lifetime.start.p0(i64 8, ptr nonnull %4) #12
  store ptr null, ptr %4, align 8, !tbaa !33
  %10 = tail call i32 @WPACKET_quic_write_vlint(ptr noundef %0, i64 noundef %1) #12
  %.not.i = icmp eq i32 %10, 0
  br i1 %.not.i, label %ossl_quic_wire_encode_transport_param_bytes.exit, label %11

11:                                               ; preds = %7
  %12 = tail call i32 @WPACKET_quic_write_vlint(ptr noundef %0, i64 noundef %9) #12
  %.not13.i = icmp eq i32 %12, 0
  br i1 %.not13.i, label %ossl_quic_wire_encode_transport_param_bytes.exit, label %13

13:                                               ; preds = %11
  %14 = icmp eq i8 %5, 0
  br i1 %14, label %15, label %17

15:                                               ; preds = %13
  %16 = tail call ptr @WPACKET_get_curr(ptr noundef %0) #12
  store ptr %16, ptr %4, align 8, !tbaa !33
  br label %19

17:                                               ; preds = %13
  %18 = call i32 @WPACKET_allocate_bytes(ptr noundef %0, i64 noundef %9, ptr noundef nonnull %4) #12
  %.not14.i = icmp eq i32 %18, 0
  br i1 %.not14.i, label %ossl_quic_wire_encode_transport_param_bytes.exit, label %._crit_edge.i

._crit_edge.i:                                    ; preds = %17
  %.pre16.pre.i = load ptr, ptr %4, align 8, !tbaa !33
  br label %19

19:                                               ; preds = %._crit_edge.i, %15
  %.pre16.i = phi ptr [ %.pre16.pre.i, %._crit_edge.i ], [ %16, %15 ]
  call void @llvm.memcpy.p0.p0.i64(ptr align 1 %.pre16.i, ptr nonnull readonly align 1 %8, i64 %9, i1 false)
  %.pre.i = load ptr, ptr %4, align 8, !tbaa !33
  %20 = icmp ne ptr %.pre.i, null
  %21 = zext i1 %20 to i32
  br label %ossl_quic_wire_encode_transport_param_bytes.exit

ossl_quic_wire_encode_transport_param_bytes.exit: ; preds = %7, %11, %17, %19
  %.0.i = phi i32 [ 0, %11 ], [ 0, %7 ], [ 0, %17 ], [ %21, %19 ]
  call void @llvm.lifetime.end.p0(i64 8, ptr nonnull %4) #12
  br label %22

22:                                               ; preds = %ossl_quic_wire_encode_transport_param_bytes.exit, %3
  %.0 = phi i32 [ 0, %3 ], [ %.0.i, %ossl_quic_wire_encode_transport_param_bytes.exit ]
  ret i32 %.0
}